; Function Attrs: mustprogress uwtable
define internal fastcc void @_ZN2cvL13parallel_for_ERKNS_5RangeESt8functionIFvS2_EEd(ptr noundef nonnull align 4 dereferenceable(8) %0, ptr noundef %1, double noundef %2) unnamed_addr #3 personality ptr @__gxx_personality_v0 {
  %4 = alloca %"class.cv::ParallelLoopBodyLambdaWrapper", align 8
  %5 = alloca %"class.std::function", align 8
  %6 = getelementptr inbounds i8, ptr %5, i64 16
  %7 = getelementptr inbounds i8, ptr %5, i64 24
  %8 = getelementptr inbounds i8, ptr %1, i64 16
  call void @llvm.memset.p0.i64(ptr noundef nonnull align 8 dereferenceable(32) %5, i8 0, i64 32, i1 false)
  %9 = load ptr, ptr %8, align 8
  %.not.i.i.not.i = icmp eq ptr %9, null
  br i1 %.not.i.i.not.i, label %_ZNSt8functionIFvRKN2cv5RangeEEEC2ERKS5_.exit.thread, label %12

_ZNSt8functionIFvRKN2cv5RangeEEEC2ERKS5_.exit.thread: ; preds = %3
  store ptr getelementptr inbounds inrange(-16, 24) (i8, ptr @_ZTVN2cv29ParallelLoopBodyLambdaWrapperE, i64 16), ptr %4, align 8
  %10 = getelementptr inbounds i8, ptr %4, i64 8
  %11 = getelementptr inbounds i8, ptr %4, i64 24
  call void @llvm.memset.p0.i64(ptr noundef nonnull align 8 dereferenceable(32) %10, i8 0, i64 32, i1 false)
  br label %_ZN2cv29ParallelLoopBodyLambdaWrapperC2ESt8functionIFvRKNS_5RangeEEE.exit

12:                                               ; preds = %3
  %13 = invoke noundef zeroext i1 %9(ptr noundef nonnull align 8 dereferenceable(16) %5, ptr noundef nonnull align 8 dereferenceable(16) %1, i32 noundef 2)
          to label %_ZNSt8functionIFvRKN2cv5RangeEEEC2ERKS5_.exit unwind label %14

14:                                               ; preds = %12
  %15 = landingpad { ptr, i32 }
          cleanup
  %16 = load ptr, ptr %6, align 8
  %.not.i.i = icmp eq ptr %16, null
  br i1 %.not.i.i, label %common.resume, label %17

17:                                               ; preds = %14
  %18 = invoke noundef zeroext i1 %16(ptr noundef nonnull align 8 dereferenceable(16) %5, ptr noundef nonnull align 8 dereferenceable(16) %5, i32 noundef 3)
          to label %common.resume unwind label %19

19:                                               ; preds = %17
  %20 = landingpad { ptr, i32 }
          catch ptr null
  %21 = extractvalue { ptr, i32 } %20, 0
  call void @__clang_call_terminate(ptr %21) #20
  unreachable

common.resume:                                    ; preds = %57, %.body, %14, %17
  %common.resume.op = phi { ptr, i32 } [ %15, %17 ], [ %15, %14 ], [ %.pn, %.body ], [ %.pn, %57 ]
  resume { ptr, i32 } %common.resume.op

_ZNSt8functionIFvRKN2cv5RangeEEEC2ERKS5_.exit:    ; preds = %12
  %22 = getelementptr inbounds i8, ptr %1, i64 24
  %23 = load ptr, ptr %22, align 8
  store ptr %23, ptr %7, align 8
  %24 = load ptr, ptr %8, align 8
  store ptr %24, ptr %6, align 8
  store ptr getelementptr inbounds inrange(-16, 24) (i8, ptr @_ZTVN2cv29ParallelLoopBodyLambdaWrapperE, i64 16), ptr %4, align 8
  %25 = getelementptr inbounds i8, ptr %4, i64 8
  %26 = getelementptr inbounds i8, ptr %4, i64 24
  call void @llvm.memset.p0.i64(ptr noundef nonnull align 8 dereferenceable(32) %25, i8 0, i64 32, i1 false)
  %.not.i.i.not.i.i = icmp eq ptr %24, null
  br i1 %.not.i.i.not.i.i, label %_ZN2cv29ParallelLoopBodyLambdaWrapperC2ESt8functionIFvRKNS_5RangeEEE.exit, label %27

27:                                               ; preds = %_ZNSt8functionIFvRKN2cv5RangeEEEC2ERKS5_.exit
  %28 = invoke noundef zeroext i1 %24(ptr noundef nonnull align 8 dereferenceable(16) %25, ptr noundef nonnull align 8 dereferenceable(16) %5, i32 noundef 2)
          to label %29 unwind label %31

29:                                               ; preds = %27
  %30 = load <2 x ptr>, ptr %6, align 8
  store <2 x ptr> %30, ptr %26, align 8
  br label %_ZN2cv29ParallelLoopBodyLambdaWrapperC2ESt8functionIFvRKNS_5RangeEEE.exit

31:                                               ; preds = %27
  %32 = landingpad { ptr, i32 }
          cleanup
  %33 = load ptr, ptr %26, align 8
  %.not.i.i.i = icmp eq ptr %33, null
  br i1 %.not.i.i.i, label %.body.i, label %34

34:                                               ; preds = %31
  %35 = invoke noundef zeroext i1 %33(ptr noundef nonnull align 8 dereferenceable(16) %25, ptr noundef nonnull align 8 dereferenceable(16) %25, i32 noundef 3)
          to label %.body.i unwind label %36

36:                                               ; preds = %34
  %37 = landingpad { ptr, i32 }
          catch ptr null
  %38 = extractvalue { ptr, i32 } %37, 0
  call void @__clang_call_terminate(ptr %38) #20
  unreachable

.body.i:                                          ; preds = %34, %31
  call void @_ZN2cv16ParallelLoopBodyD2Ev(ptr noundef nonnull align 8 dereferenceable(8) %4) #17
  br label %.body

_ZN2cv29ParallelLoopBodyLambdaWrapperC2ESt8functionIFvRKNS_5RangeEEE.exit: ; preds = %_ZNSt8functionIFvRKN2cv5RangeEEEC2ERKS5_.exit.thread, %29, %_ZNSt8functionIFvRKN2cv5RangeEEEC2ERKS5_.exit
  %39 = phi ptr [ %11, %_ZNSt8functionIFvRKN2cv5RangeEEEC2ERKS5_.exit.thread ], [ %26, %29 ], [ %26, %_ZNSt8functionIFvRKN2cv5RangeEEEC2ERKS5_.exit ]
  %40 = phi ptr [ %10, %_ZNSt8functionIFvRKN2cv5RangeEEEC2ERKS5_.exit.thread ], [ %25, %29 ], [ %25, %_ZNSt8functionIFvRKN2cv5RangeEEEC2ERKS5_.exit ]
  invoke void @_ZN2cv13parallel_for_ERKNS_5RangeERKNS_16ParallelLoopBodyEd(ptr noundef nonnull align 4 dereferenceable(8) %0, ptr noundef nonnull align 8 dereferenceable(8) %4, double noundef %2)
          to label %41 unwind label %54

41:                                               ; preds = %_ZN2cv29ParallelLoopBodyLambdaWrapperC2ESt8functionIFvRKNS_5RangeEEE.exit
  store ptr getelementptr inbounds inrange(-16, 24) (i8, ptr @_ZTVN2cv29ParallelLoopBodyLambdaWrapperE, i64 16), ptr %4, align 8
  %42 = load ptr, ptr %39, align 8
  %.not.i.i.i5 = icmp eq ptr %42, null
  br i1 %.not.i.i.i5, label %_ZN2cv29ParallelLoopBodyLambdaWrapperD2Ev.exit, label %43

43:                                               ; preds = %41
  %44 = invoke noundef zeroext i1 %42(ptr noundef nonnull align 8 dereferenceable(16) %40, ptr noundef nonnull align 8 dereferenceable(16) %40, i32 noundef 3)
          to label %_ZN2cv29ParallelLoopBodyLambdaWrapperD2Ev.exit unwind label %45

45:                                               ; preds = %43
  %46 = landingpad { ptr, i32 }
          catch ptr null
  %47 = extractvalue { ptr, i32 } %46, 0
  call void @__clang_call_terminate(ptr %47) #20
  unreachable

_ZN2cv29ParallelLoopBodyLambdaWrapperD2Ev.exit:   ; preds = %41, %43
  call void @_ZN2cv16ParallelLoopBodyD2Ev(ptr noundef nonnull align 8 dereferenceable(8) %4) #17
  %48 = load ptr, ptr %6, align 8
  %.not.i.i6 = icmp eq ptr %48, null
  br i1 %.not.i.i6, label %_ZNSt8functionIFvRKN2cv5RangeEEED2Ev.exit, label %49

49:                                               ; preds = %_ZN2cv29ParallelLoopBodyLambdaWrapperD2Ev.exit
  %50 = invoke noundef zeroext i1 %48(ptr noundef nonnull align 8 dereferenceable(16) %5, ptr noundef nonnull align 8 dereferenceable(16) %5, i32 noundef 3)
          to label %_ZNSt8functionIFvRKN2cv5RangeEEED2Ev.exit unwind label %51

51:                                               ; preds = %49
  %52 = landingpad { ptr, i32 }
          catch ptr null
  %53 = extractvalue { ptr, i32 } %52, 0
  call void @__clang_call_terminate(ptr %53) #20
  unreachable

_ZNSt8functionIFvRKN2cv5RangeEEED2Ev.exit:        ; preds = %_ZN2cv29ParallelLoopBodyLambdaWrapperD2Ev.exit, %49
  ret void

54:                                               ; preds = %_ZN2cv29ParallelLoopBodyLambdaWrapperC2ESt8functionIFvRKNS_5RangeEEE.exit
  %55 = landingpad { ptr, i32 }
          cleanup
  call void @_ZN2cv29ParallelLoopBodyLambdaWrapperD2Ev(ptr noundef nonnull align 8 dereferenceable(40) %4) #17
  br label %.body

.body:                                            ; preds = %.body.i, %54
  %.pn = phi { ptr, i32 } [ %55, %54 ], [ %32, %.body.i ]
  %56 = load ptr, ptr %6, align 8
  %.not.i.i8 = icmp eq ptr %56, null
  br i1 %.not.i.i8, label %common.resume, label %57

57:                                               ; preds = %.body
  %58 = invoke noundef zeroext i1 %56(ptr noundef nonnull align 8 dereferenceable(16) %5, ptr noundef nonnull align 8 dereferenceable(16) %5, i32 noundef 3)
          to label %common.resume unwind label %59

59:                                               ; preds = %57
  %60 = landingpad { ptr, i32 }
          catch ptr null
  %61 = extractvalue { ptr, i32 } %60, 0
  call void @__clang_call_terminate(ptr %61) #20
  unreachable
}